target datalayout = "e-m:e-p270:32:32-p271:32:32-p272:64:64-i64:64-i128:128-f80:128-n8:16:32:64-S128"
target triple = "x86_64-pc-linux-gnu"

%struct.AVCodecContext = type { ptr, i32, i32, ptr, i32, i32, ptr, ptr, ptr, i64, i32, i32, ptr, i32, %struct.AVRational, %struct.AVRational, %struct.AVRational, i32, i32, i32, i32, i32, %struct.AVRational, i32, i32, i32, i32, i32, i32, i32, i32, i32, i32, i32, ptr, ptr, i32, float, float, float, float, float, float, float, float, float, i32, i32, i32, i32, i32, i32, i32, i32, i32, i32, i32, i32, ptr, ptr, ptr, i32, i32, i32, i32, i32, i32, i32, i32, i32, i32, %struct.AVChannelLayout, i32, i32, i32, i32, i32, i32, i32, i32, ptr, i32, i32, i32, float, float, i32, i32, i32, i32, i32, ptr, i64, i64, float, float, i32, i32, ptr, ptr, i32, i32, i32, i32, i32, ptr, ptr, ptr, ptr, i32, i32, [8 x i64], i32, i32, i32, i32, i32, i32, i32, ptr, ptr, i32, i32, i32, i32, i32, i32, i32, i32, i32, i32, ptr, ptr, i32, i32, ptr, ptr, ptr, ptr, i32, i32, i64, i32, i32, i64, ptr, i64, ptr, i32, ptr, i32 }
%struct.AVRational = type { i32, i32 }
%struct.AVChannelLayout = type { i32, i32, %union.anon, ptr }
%union.anon = type { i64 }
%struct.FFV1Context = type { ptr, ptr, [256 x [2 x i64]], [8 x ptr], i32, i32, i32, i32, i32, i32, i32, i32, i32, i32, i64, i32, %struct.ProgressFrame, %struct.ProgressFrame, ptr, ptr, i32, i32, i32, ptr, i32, i32, [8 x [5 x [256 x i16]]], [8 x i32], [256 x i8], [8 x ptr], i32, i32, i32, i32, i32, i32, i32, i32, i32, i32, i32, i32, i32, i32, i32, i32, i32, i32, i32, ptr, ptr, i8 }
%struct.ProgressFrame = type { ptr, ptr }

@.str = private unnamed_addr constant [113 x i8] c"Unsupported number %d of slices requested, please specify a supported number with -slices (ex:4,6,9,12,16, ...)\0A\00", align 1

; Function Attrs: cold nounwind optsize uwtable
define i32 @ff_ffv1_encode_determine_slices(ptr noundef %0) #0 {
  %2 = alloca i32, align 4
  %3 = alloca ptr, align 8
  %4 = alloca ptr, align 8
  %5 = alloca i32, align 4
  %6 = alloca i32, align 4
  %7 = alloca i32, align 4
  %8 = alloca i32, align 4
  %9 = alloca i32, align 4
  %10 = alloca i32, align 4
  store ptr %0, ptr %3, align 8, !tbaa !4
  call void @llvm.lifetime.start.p0(i64 8, ptr %4) #16
  %11 = load ptr, ptr %3, align 8, !tbaa !4
  %12 = getelementptr inbounds nuw %struct.AVCodecContext, ptr %11, i32 0, i32 6
  %13 = load ptr, ptr %12, align 8, !tbaa !9
  store ptr %13, ptr %4, align 8, !tbaa !29
  call void @llvm.lifetime.start.p0(i64 4, ptr %5) #16
  %14 = load ptr, ptr %4, align 8, !tbaa !29
  %15 = getelementptr inbounds nuw %struct.FFV1Context, ptr %14, i32 0, i32 9
  %16 = load i32, ptr %15, align 4, !tbaa !48
  %17 = mul nsw i32 2, %16
  %18 = add nsw i32 1, %17
  %19 = load ptr, ptr %4, align 8, !tbaa !29
  %20 = getelementptr inbounds nuw %struct.FFV1Context, ptr %19, i32 0, i32 12
  %21 = load i32, ptr %20, align 8, !tbaa !51
  %22 = add nsw i32 %18, %21
  store i32 %22, ptr %5, align 4, !tbaa !42
  call void @llvm.lifetime.start.p0(i64 4, ptr %6) #16
  %23 = load ptr, ptr %4, align 8, !tbaa !29
  %24 = getelementptr inbounds nuw %struct.FFV1Context, ptr %23, i32 0, i32 10
  %25 = load i32, ptr %24, align 8, !tbaa !49
  %26 = call i1 @llvm.is.constant.i32(i32 %25)
  br i1 %26, label %37, label %27

27:                                               ; preds = %1
  %28 = load ptr, ptr %3, align 8, !tbaa !4
  %29 = getelementptr inbounds nuw %struct.AVCodecContext, ptr %28, i32 0, i32 18
  %30 = load i32, ptr %29, align 8, !tbaa !73
  %31 = sub nsw i32 0, %30
  %32 = load ptr, ptr %4, align 8, !tbaa !29
  %33 = getelementptr inbounds nuw %struct.FFV1Context, ptr %32, i32 0, i32 10
  %34 = load i32, ptr %33, align 8, !tbaa !49
  %35 = ashr i32 %31, %34
  %36 = sub nsw i32 0, %35
  br label %51

37:                                               ; preds = %1
  %38 = load ptr, ptr %3, align 8, !tbaa !4
  %39 = getelementptr inbounds nuw %struct.AVCodecContext, ptr %38, i32 0, i32 18
  %40 = load i32, ptr %39, align 8, !tbaa !73
  %41 = load ptr, ptr %4, align 8, !tbaa !29
  %42 = getelementptr inbounds nuw %struct.FFV1Context, ptr %41, i32 0, i32 10
  %43 = load i32, ptr %42, align 8, !tbaa !49
  %44 = shl i32 1, %43
  %45 = add nsw i32 %40, %44
  %46 = sub nsw i32 %45, 1
  %47 = load ptr, ptr %4, align 8, !tbaa !29
  %48 = getelementptr inbounds nuw %struct.FFV1Context, ptr %47, i32 0, i32 10
  %49 = load i32, ptr %48, align 8, !tbaa !49
  %50 = ashr i32 %46, %49
  br label %51

51:                                               ; preds = %37, %27
  %52 = phi i32 [ %36, %27 ], [ %50, %37 ]
  store i32 %52, ptr %6, align 4, !tbaa !42
  call void @llvm.lifetime.start.p0(i64 4, ptr %7) #16
  %53 = load ptr, ptr %4, align 8, !tbaa !29
  %54 = getelementptr inbounds nuw %struct.FFV1Context, ptr %53, i32 0, i32 11
  %55 = load i32, ptr %54, align 4, !tbaa !50
  %56 = call i1 @llvm.is.constant.i32(i32 %55)
  br i1 %56, label %67, label %57

57:                                               ; preds = %51
  %58 = load ptr, ptr %3, align 8, !tbaa !4
  %59 = getelementptr inbounds nuw %struct.AVCodecContext, ptr %58, i32 0, i32 19
  %60 = load i32, ptr %59, align 4, !tbaa !74
  %61 = sub nsw i32 0, %60
  %62 = load ptr, ptr %4, align 8, !tbaa !29
  %63 = getelementptr inbounds nuw %struct.FFV1Context, ptr %62, i32 0, i32 11
  %64 = load i32, ptr %63, align 4, !tbaa !50
  %65 = ashr i32 %61, %64
  %66 = sub nsw i32 0, %65
  br label %81

67:                                               ; preds = %51
  %68 = load ptr, ptr %3, align 8, !tbaa !4
  %69 = getelementptr inbounds nuw %struct.AVCodecContext, ptr %68, i32 0, i32 19
  %70 = load i32, ptr %69, align 4, !tbaa !74
  %71 = load ptr, ptr %4, align 8, !tbaa !29
  %72 = getelementptr inbounds nuw %struct.FFV1Context, ptr %71, i32 0, i32 11
  %73 = load i32, ptr %72, align 4, !tbaa !50
  %74 = shl i32 1, %73
  %75 = add nsw i32 %70, %74
  %76 = sub nsw i32 %75, 1
  %77 = load ptr, ptr %4, align 8, !tbaa !29
  %78 = getelementptr inbounds nuw %struct.FFV1Context, ptr %77, i32 0, i32 11
  %79 = load i32, ptr %78, align 4, !tbaa !50
  %80 = ashr i32 %76, %79
  br label %81

81:                                               ; preds = %67, %57
  %82 = phi i32 [ %66, %57 ], [ %80, %67 ]
  store i32 %82, ptr %7, align 4, !tbaa !42
  %83 = load ptr, ptr %3, align 8, !tbaa !4
  %84 = getelementptr inbounds nuw %struct.AVCodecContext, ptr %83, i32 0, i32 18
  %85 = load i32, ptr %84, align 8, !tbaa !73
  %86 = icmp sgt i32 %85, 352
  br i1 %86, label %98, label %87

87:                                               ; preds = %81
  %88 = load ptr, ptr %3, align 8, !tbaa !4
  %89 = getelementptr inbounds nuw %struct.AVCodecContext, ptr %88, i32 0, i32 19
  %90 = load i32, ptr %89, align 4, !tbaa !74
  %91 = icmp sgt i32 %90, 288
  br i1 %91, label %98, label %92

92:                                               ; preds = %87
  %93 = load ptr, ptr %3, align 8, !tbaa !4
  %94 = getelementptr inbounds nuw %struct.AVCodecContext, ptr %93, i32 0, i32 68
  %95 = load i32, ptr %94, align 4, !tbaa !75
  %96 = icmp ne i32 %95, 0
  %97 = xor i1 %96, true
  br label %98

98:                                               ; preds = %92, %87, %81
  %99 = phi i1 [ true, %87 ], [ true, %81 ], [ %97, %92 ]
  %100 = select i1 %99, i32 2, i32 1
  %101 = load ptr, ptr %4, align 8, !tbaa !29
  %102 = getelementptr inbounds nuw %struct.FFV1Context, ptr %101, i32 0, i32 47
  store i32 %100, ptr %102, align 4, !tbaa !53
  %103 = load ptr, ptr %4, align 8, !tbaa !29
  %104 = getelementptr inbounds nuw %struct.FFV1Context, ptr %103, i32 0, i32 47
  %105 = load i32, ptr %104, align 4, !tbaa !53
  %106 = load i32, ptr %7, align 4, !tbaa !42
  %107 = icmp sgt i32 %105, %106
  br i1 %107, label %108, label %110

108:                                              ; preds = %98
  %109 = load i32, ptr %7, align 4, !tbaa !42
  br label %114

110:                                              ; preds = %98
  %111 = load ptr, ptr %4, align 8, !tbaa !29
  %112 = getelementptr inbounds nuw %struct.FFV1Context, ptr %111, i32 0, i32 47
  %113 = load i32, ptr %112, align 4, !tbaa !53
  br label %114

114:                                              ; preds = %110, %108
  %115 = phi i32 [ %109, %108 ], [ %113, %110 ]
  %116 = load ptr, ptr %4, align 8, !tbaa !29
  %117 = getelementptr inbounds nuw %struct.FFV1Context, ptr %116, i32 0, i32 47
  store i32 %115, ptr %117, align 4, !tbaa !53
  br label %118

118:                                              ; preds = %262, %114
  %119 = load ptr, ptr %4, align 8, !tbaa !29
  %120 = getelementptr inbounds nuw %struct.FFV1Context, ptr %119, i32 0, i32 47
  %121 = load i32, ptr %120, align 4, !tbaa !53
  %122 = icmp sle i32 %121, 32
  br i1 %122, label %123, label %267

123:                                              ; preds = %118
  %124 = load ptr, ptr %4, align 8, !tbaa !29
  %125 = getelementptr inbounds nuw %struct.FFV1Context, ptr %124, i32 0, i32 47
  %126 = load i32, ptr %125, align 4, !tbaa !53
  %127 = load ptr, ptr %4, align 8, !tbaa !29
  %128 = getelementptr inbounds nuw %struct.FFV1Context, ptr %127, i32 0, i32 48
  store i32 %126, ptr %128, align 8, !tbaa !52
  br label %129

129:                                              ; preds = %256, %123
  %130 = load ptr, ptr %4, align 8, !tbaa !29
  %131 = getelementptr inbounds nuw %struct.FFV1Context, ptr %130, i32 0, i32 48
  %132 = load i32, ptr %131, align 8, !tbaa !52
  %133 = load ptr, ptr %4, align 8, !tbaa !29
  %134 = getelementptr inbounds nuw %struct.FFV1Context, ptr %133, i32 0, i32 47
  %135 = load i32, ptr %134, align 4, !tbaa !53
  %136 = mul nsw i32 2, %135
  %137 = icmp sle i32 %132, %136
  br i1 %137, label %138, label %261

138:                                              ; preds = %129
  call void @llvm.lifetime.start.p0(i64 4, ptr %8) #16
  %139 = load ptr, ptr %3, align 8, !tbaa !4
  %140 = getelementptr inbounds nuw %struct.AVCodecContext, ptr %139, i32 0, i32 18
  %141 = load i32, ptr %140, align 8, !tbaa !73
  %142 = load ptr, ptr %4, align 8, !tbaa !29
  %143 = getelementptr inbounds nuw %struct.FFV1Context, ptr %142, i32 0, i32 48
  %144 = load i32, ptr %143, align 8, !tbaa !52
  %145 = add nsw i32 %141, %144
  %146 = sub nsw i32 %145, 1
  %147 = load ptr, ptr %4, align 8, !tbaa !29
  %148 = getelementptr inbounds nuw %struct.FFV1Context, ptr %147, i32 0, i32 48
  %149 = load i32, ptr %148, align 8, !tbaa !52
  %150 = sdiv i32 %146, %149
  store i32 %150, ptr %8, align 4, !tbaa !42
  call void @llvm.lifetime.start.p0(i64 4, ptr %9) #16
  %151 = load ptr, ptr %3, align 8, !tbaa !4
  %152 = getelementptr inbounds nuw %struct.AVCodecContext, ptr %151, i32 0, i32 19
  %153 = load i32, ptr %152, align 4, !tbaa !74
  %154 = load ptr, ptr %4, align 8, !tbaa !29
  %155 = getelementptr inbounds nuw %struct.FFV1Context, ptr %154, i32 0, i32 47
  %156 = load i32, ptr %155, align 4, !tbaa !53
  %157 = add nsw i32 %153, %156
  %158 = sub nsw i32 %157, 1
  %159 = load ptr, ptr %4, align 8, !tbaa !29
  %160 = getelementptr inbounds nuw %struct.FFV1Context, ptr %159, i32 0, i32 47
  %161 = load i32, ptr %160, align 4, !tbaa !53
  %162 = sdiv i32 %158, %161
  store i32 %162, ptr %9, align 4, !tbaa !42
  %163 = load ptr, ptr %4, align 8, !tbaa !29
  %164 = getelementptr inbounds nuw %struct.FFV1Context, ptr %163, i32 0, i32 48
  %165 = load i32, ptr %164, align 8, !tbaa !52
  %166 = load i32, ptr %6, align 4, !tbaa !42
  %167 = icmp sgt i32 %165, %166
  br i1 %167, label %174, label %168

168:                                              ; preds = %138
  %169 = load ptr, ptr %4, align 8, !tbaa !29
  %170 = getelementptr inbounds nuw %struct.FFV1Context, ptr %169, i32 0, i32 47
  %171 = load i32, ptr %170, align 4, !tbaa !53
  %172 = load i32, ptr %7, align 4, !tbaa !42
  %173 = icmp sgt i32 %171, %172
  br i1 %173, label %174, label %175

174:                                              ; preds = %168, %138
  store i32 7, ptr %10, align 4
  br label %253

175:                                              ; preds = %168
  %176 = load i32, ptr %8, align 4, !tbaa !42
  %177 = load i32, ptr %9, align 4, !tbaa !42
  %178 = mul nsw i32 %176, %177
  %179 = sext i32 %178 to i64
  %180 = load ptr, ptr %4, align 8, !tbaa !29
  %181 = getelementptr inbounds nuw %struct.FFV1Context, ptr %180, i32 0, i32 41
  %182 = load i32, ptr %181, align 4, !tbaa !47
  %183 = add nsw i32 %182, 1
  %184 = sext i32 %183 to i64
  %185 = mul nsw i64 %179, %184
  %186 = load i32, ptr %5, align 4, !tbaa !42
  %187 = sext i32 %186 to i64
  %188 = mul nsw i64 %185, %187
  %189 = icmp sgt i64 %188, 134217728
  br i1 %189, label %190, label %191

190:                                              ; preds = %175
  store i32 7, ptr %10, align 4
  br label %253

191:                                              ; preds = %175
  %192 = load ptr, ptr %4, align 8, !tbaa !29
  %193 = getelementptr inbounds nuw %struct.FFV1Context, ptr %192, i32 0, i32 4
  %194 = load i32, ptr %193, align 8, !tbaa !39
  %195 = icmp slt i32 %194, 4
  br i1 %195, label %196, label %222

196:                                              ; preds = %191
  %197 = load ptr, ptr %3, align 8, !tbaa !4
  %198 = getelementptr inbounds nuw %struct.AVCodecContext, ptr %197, i32 0, i32 18
  %199 = load i32, ptr %198, align 8, !tbaa !73
  %200 = load ptr, ptr %4, align 8, !tbaa !29
  %201 = getelementptr inbounds nuw %struct.FFV1Context, ptr %200, i32 0, i32 48
  %202 = load i32, ptr %201, align 8, !tbaa !52
  %203 = load ptr, ptr %4, align 8, !tbaa !29
  %204 = getelementptr inbounds nuw %struct.FFV1Context, ptr %203, i32 0, i32 10
  %205 = load i32, ptr %204, align 8, !tbaa !49
  %206 = call i32 @ff_need_new_slices(i32 noundef %199, i32 noundef %202, i32 noundef %205)
  %207 = icmp ne i32 %206, 0
  br i1 %207, label %220, label %208

208:                                              ; preds = %196
  %209 = load ptr, ptr %3, align 8, !tbaa !4
  %210 = getelementptr inbounds nuw %struct.AVCodecContext, ptr %209, i32 0, i32 19
  %211 = load i32, ptr %210, align 4, !tbaa !74
  %212 = load ptr, ptr %4, align 8, !tbaa !29
  %213 = getelementptr inbounds nuw %struct.FFV1Context, ptr %212, i32 0, i32 47
  %214 = load i32, ptr %213, align 4, !tbaa !53
  %215 = load ptr, ptr %4, align 8, !tbaa !29
  %216 = getelementptr inbounds nuw %struct.FFV1Context, ptr %215, i32 0, i32 11
  %217 = load i32, ptr %216, align 4, !tbaa !50
  %218 = call i32 @ff_need_new_slices(i32 noundef %211, i32 noundef %214, i32 noundef %217)
  %219 = icmp ne i32 %218, 0
  br i1 %219, label %220, label %221

220:                                              ; preds = %208, %196
  store i32 7, ptr %10, align 4
  br label %253

221:                                              ; preds = %208
  br label %222

222:                                              ; preds = %221, %191
  %223 = load ptr, ptr %3, align 8, !tbaa !4
  %224 = getelementptr inbounds nuw %struct.AVCodecContext, ptr %223, i32 0, i32 68
  %225 = load i32, ptr %224, align 4, !tbaa !75
  %226 = load ptr, ptr %4, align 8, !tbaa !29
  %227 = getelementptr inbounds nuw %struct.FFV1Context, ptr %226, i32 0, i32 48
  %228 = load i32, ptr %227, align 8, !tbaa !52
  %229 = load ptr, ptr %4, align 8, !tbaa !29
  %230 = getelementptr inbounds nuw %struct.FFV1Context, ptr %229, i32 0, i32 47
  %231 = load i32, ptr %230, align 4, !tbaa !53
  %232 = mul nsw i32 %228, %231
  %233 = icmp eq i32 %225, %232
  br i1 %233, label %234, label %240

234:                                              ; preds = %222
  %235 = load ptr, ptr %3, align 8, !tbaa !4
  %236 = getelementptr inbounds nuw %struct.AVCodecContext, ptr %235, i32 0, i32 68
  %237 = load i32, ptr %236, align 4, !tbaa !75
  %238 = icmp sle i32 %237, 1024
  br i1 %238, label %239, label %240

239:                                              ; preds = %234
  store i32 0, ptr %2, align 4
  store i32 1, ptr %10, align 4
  br label %253

240:                                              ; preds = %234, %222
  %241 = load i32, ptr %8, align 4, !tbaa !42
  %242 = load i32, ptr %9, align 4, !tbaa !42
  %243 = mul nsw i32 %241, %242
  %244 = icmp sgt i32 %243, 103680
  br i1 %244, label %245, label %246

245:                                              ; preds = %240
  store i32 7, ptr %10, align 4
  br label %253

246:                                              ; preds = %240
  %247 = load ptr, ptr %3, align 8, !tbaa !4
  %248 = getelementptr inbounds nuw %struct.AVCodecContext, ptr %247, i32 0, i32 68
  %249 = load i32, ptr %248, align 4, !tbaa !75
  %250 = icmp ne i32 %249, 0
  br i1 %250, label %252, label %251

251:                                              ; preds = %246
  store i32 0, ptr %2, align 4
  store i32 1, ptr %10, align 4
  br label %253

252:                                              ; preds = %246
  store i32 0, ptr %10, align 4
  br label %253

253:                                              ; preds = %252, %251, %245, %239, %220, %190, %174
  call void @llvm.lifetime.end.p0(i64 4, ptr %9) #16
  call void @llvm.lifetime.end.p0(i64 4, ptr %8) #16
  %254 = load i32, ptr %10, align 4
  switch i32 %254, label %272 [
    i32 0, label %255
    i32 7, label %256
  ]

255:                                              ; preds = %253
  br label %256

256:                                              ; preds = %255, %253
  %257 = load ptr, ptr %4, align 8, !tbaa !29
  %258 = getelementptr inbounds nuw %struct.FFV1Context, ptr %257, i32 0, i32 48
  %259 = load i32, ptr %258, align 8, !tbaa !52
  %260 = add nsw i32 %259, 1
  store i32 %260, ptr %258, align 8, !tbaa !52
  br label %129, !llvm.loop !76

261:                                              ; preds = %129
  br label %262

262:                                              ; preds = %261
  %263 = load ptr, ptr %4, align 8, !tbaa !29
  %264 = getelementptr inbounds nuw %struct.FFV1Context, ptr %263, i32 0, i32 47
  %265 = load i32, ptr %264, align 4, !tbaa !53
  %266 = add nsw i32 %265, 1
  store i32 %266, ptr %264, align 4, !tbaa !53
  br label %118, !llvm.loop !77

267:                                              ; preds = %118
  %268 = load ptr, ptr %3, align 8, !tbaa !4
  %269 = load ptr, ptr %3, align 8, !tbaa !4
  %270 = getelementptr inbounds nuw %struct.AVCodecContext, ptr %269, i32 0, i32 68
  %271 = load i32, ptr %270, align 4, !tbaa !75
  call void (ptr, i32, ptr, ...) @av_log(ptr noundef %268, i32 noundef 16, ptr noundef @.str, i32 noundef %271)
  store i32 -38, ptr %2, align 4
  store i32 1, ptr %10, align 4
  br label %272

272:                                              ; preds = %267, %253
  call void @llvm.lifetime.end.p0(i64 4, ptr %7) #16
  call void @llvm.lifetime.end.p0(i64 4, ptr %6) #16
  call void @llvm.lifetime.end.p0(i64 4, ptr %5) #16
  call void @llvm.lifetime.end.p0(i64 8, ptr %4) #16
  %273 = load i32, ptr %2, align 4
  ret i32 %273
}