; Function Attrs: cold nounwind optsize uwtable
define range(i32 -38, 1) i32 @ff_ffv1_encode_determine_slices(ptr noundef %0) local_unnamed_addr #0 {
  %2 = getelementptr inbounds nuw i8, ptr %0, i64 32
  %3 = load ptr, ptr %2, align 8, !tbaa !4
  %4 = getelementptr inbounds nuw i8, ptr %3, i64 4196
  %5 = load i32, ptr %4, align 4, !tbaa !44
  %6 = shl nsw i32 %5, 1
  %7 = or disjoint i32 %6, 1
  %8 = getelementptr inbounds nuw i8, ptr %3, i64 4208
  %9 = load i32, ptr %8, align 8, !tbaa !54
  %10 = add nsw i32 %7, %9
  %11 = getelementptr inbounds nuw i8, ptr %3, i64 4200
  %12 = getelementptr inbounds nuw i8, ptr %0, i64 112
  %13 = load i32, ptr %12, align 8, !tbaa !78
  %14 = load i32, ptr %11, align 8, !tbaa !52
  %15 = sub nsw i32 0, %13
  %16 = ashr i32 %15, %14
  %17 = sub nsw i32 0, %16
  %18 = getelementptr inbounds nuw i8, ptr %3, i64 4204
  %19 = getelementptr inbounds nuw i8, ptr %0, i64 116
  %20 = load i32, ptr %19, align 4, !tbaa !79
  %21 = load i32, ptr %18, align 4, !tbaa !53
  %22 = sub nsw i32 0, %20
  %23 = ashr i32 %22, %21
  %24 = sub nsw i32 0, %23
  %25 = getelementptr inbounds nuw i8, ptr %0, i64 112
  %26 = icmp sgt i32 %13, 352
  %27 = icmp sgt i32 %20, 288
  %or.cond92 = select i1 %26, i1 true, i1 %27
  br i1 %or.cond92, label %.lr.ph83, label %28

28:                                               ; preds = %1
  %29 = getelementptr inbounds nuw i8, ptr %0, i64 340
  %30 = load i32, ptr %29, align 4, !tbaa !80
  %.not = icmp eq i32 %30, 0
  %31 = select i1 %.not, i32 2, i32 1
  br label %.lr.ph83

.lr.ph83:                                         ; preds = %1, %28
  %32 = phi i32 [ 2, %1 ], [ %31, %28 ]
  %33 = getelementptr inbounds nuw i8, ptr %3, i64 25212
  %spec.select = tail call i32 @llvm.smin.i32(i32 %32, i32 %24)
  store i32 %spec.select, ptr %33, align 4, !tbaa !56
  %34 = getelementptr inbounds nuw i8, ptr %3, i64 25216
  %35 = getelementptr inbounds nuw i8, ptr %0, i64 116
  %36 = getelementptr inbounds nuw i8, ptr %3, i64 25188
  %37 = sext i32 %10 to i64
  %38 = getelementptr inbounds nuw i8, ptr %3, i64 4176
  %39 = getelementptr inbounds nuw i8, ptr %0, i64 340
  br label %40

40:                                               ; preds = %.lr.ph83, %select.unfold
  %41 = phi i32 [ %spec.select, %.lr.ph83 ], [ %87, %select.unfold ]
  store i32 %41, ptr %34, align 8, !tbaa !55
  %42 = shl nsw i32 %41, 1
  %.not6979 = icmp sgt i32 %41, %42
  br i1 %.not6979, label %select.unfold, label %.lr.ph

.lr.ph:                                           ; preds = %40, %82
  %43 = phi i32 [ %83, %82 ], [ %41, %40 ]
  %storemerge6880 = phi i32 [ %85, %82 ], [ %41, %40 ]
  %44 = load i32, ptr %25, align 8, !tbaa !78
  %45 = icmp sgt i32 %storemerge6880, %17
  %46 = icmp sgt i32 %43, %24
  %or.cond = select i1 %45, i1 true, i1 %46
  br i1 %or.cond, label %82, label %47

47:                                               ; preds = %.lr.ph
  %48 = load i32, ptr %35, align 4, !tbaa !79
  %49 = add i32 %43, -1
  %50 = add i32 %49, %48
  %51 = sdiv i32 %50, %43
  %52 = add i32 %storemerge6880, -1
  %53 = add i32 %52, %44
  %54 = sdiv i32 %53, %storemerge6880
  %55 = mul nsw i32 %54, %51
  %56 = sext i32 %55 to i64
  %57 = load i32, ptr %36, align 4, !tbaa !43
  %58 = add nsw i32 %57, 1
  %59 = sext i32 %58 to i64
  %60 = mul nsw i64 %56, %37
  %61 = mul i64 %60, %59
  %62 = icmp sgt i64 %61, 134217728
  br i1 %62, label %82, label %63

63:                                               ; preds = %47
  %64 = load i32, ptr %38, align 8, !tbaa !36
  %65 = icmp slt i32 %64, 4
  br i1 %65, label %66, label %._crit_edge

66:                                               ; preds = %63
  %67 = load i32, ptr %11, align 8, !tbaa !52
  %68 = tail call i32 @ff_need_new_slices(i32 noundef %44, i32 noundef %storemerge6880, i32 noundef %67) #19
  %.not70 = icmp eq i32 %68, 0
  %69 = load i32, ptr %33, align 4, !tbaa !56
  br i1 %.not70, label %70, label %._crit_edge87

._crit_edge87:                                    ; preds = %66
  %.pre88 = load i32, ptr %34, align 8, !tbaa !55
  br label %82

70:                                               ; preds = %66
  %71 = load i32, ptr %35, align 4, !tbaa !79
  %72 = load i32, ptr %18, align 4, !tbaa !53
  %73 = tail call i32 @ff_need_new_slices(i32 noundef %71, i32 noundef %69, i32 noundef %72) #19
  %.not71 = icmp eq i32 %73, 0
  %.pre89 = load i32, ptr %34, align 8, !tbaa !55
  %.pre90 = load i32, ptr %33, align 4, !tbaa !56
  br i1 %.not71, label %._crit_edge, label %82

._crit_edge:                                      ; preds = %70, %63
  %74 = phi i32 [ %43, %63 ], [ %.pre90, %70 ]
  %75 = phi i32 [ %storemerge6880, %63 ], [ %.pre89, %70 ]
  %76 = load i32, ptr %39, align 4, !tbaa !80
  %77 = mul nsw i32 %74, %75
  %78 = icmp eq i32 %76, %77
  %79 = icmp slt i32 %76, 1025
  %or.cond73 = and i1 %79, %78
  br i1 %or.cond73, label %select.unfold75, label %80

80:                                               ; preds = %._crit_edge
  %81 = icmp slt i32 %55, 103681
  %.not72 = icmp eq i32 %76, 0
  %or.cond77 = and i1 %81, %.not72
  br i1 %or.cond77, label %select.unfold75, label %82

82:                                               ; preds = %._crit_edge87, %.lr.ph, %47, %70, %80
  %83 = phi i32 [ %69, %._crit_edge87 ], [ %43, %.lr.ph ], [ %43, %47 ], [ %.pre90, %70 ], [ %74, %80 ]
  %84 = phi i32 [ %.pre88, %._crit_edge87 ], [ %storemerge6880, %.lr.ph ], [ %storemerge6880, %47 ], [ %.pre89, %70 ], [ %75, %80 ]
  %85 = add nsw i32 %84, 1
  store i32 %85, ptr %34, align 8, !tbaa !55
  %86 = shl nsw i32 %83, 1
  %.not69.not = icmp slt i32 %84, %86
  br i1 %.not69.not, label %.lr.ph, label %select.unfold, !llvm.loop !81

select.unfold:                                    ; preds = %82, %40
  %.lcssa = phi i32 [ %41, %40 ], [ %83, %82 ]
  %87 = add nsw i32 %.lcssa, 1
  store i32 %87, ptr %33, align 4, !tbaa !56
  %88 = icmp slt i32 %.lcssa, 32
  br i1 %88, label %40, label %select.unfold._crit_edge, !llvm.loop !82

select.unfold._crit_edge:                         ; preds = %select.unfold
  %89 = getelementptr inbounds nuw i8, ptr %0, i64 340
  %90 = load i32, ptr %89, align 4, !tbaa !80
  tail call void (ptr, i32, ptr, ...) @av_log(ptr noundef %0, i32 noundef 16, ptr noundef nonnull @.str, i32 noundef %90) #19
  br label %select.unfold75

select.unfold75:                                  ; preds = %80, %._crit_edge, %select.unfold._crit_edge
  %.3 = phi i32 [ -38, %select.unfold._crit_edge ], [ 0, %._crit_edge ], [ 0, %80 ]
  ret i32 %.3
}